target datalayout = "e-m:e-p270:32:32-p271:32:32-p272:64:64-i64:64-i128:128-f80:128-n8:16:32:64-S128"
target triple = "x86_64-pc-linux-gnu"

%struct._GLFWlibrary = type { i32, %struct.GLFWallocator, %struct._GLFWplatform, %struct.anon.7, ptr, ptr, ptr, ptr, i32, i32, [16 x %struct._GLFWjoystick], ptr, i32, %struct._GLFWtls, %struct._GLFWtls, %struct._GLFWmutex, %struct.anon.16, %struct.anon.17, %struct.anon.18, %struct.anon.19, %struct.anon.20, %struct._GLFWlibraryWayland, %struct._GLFWlibraryX11, %struct._GLFWlibraryNull, %struct._GLFWlibraryGLX, %struct._GLFWlibraryLinux }
%struct.GLFWallocator = type { ptr, ptr, ptr, ptr }
%struct._GLFWplatform = type { i32, ptr, ptr, ptr, ptr, ptr, ptr, ptr, ptr, ptr, ptr, ptr, ptr, ptr, ptr, ptr, ptr, ptr, ptr, ptr, ptr, ptr, ptr, ptr, ptr, ptr, ptr, ptr, ptr, ptr, ptr, ptr, ptr, ptr, ptr, ptr, ptr, ptr, ptr, ptr, ptr, ptr, ptr, ptr, ptr, ptr, ptr, ptr, ptr, ptr, ptr, ptr, ptr, ptr, ptr, ptr, ptr, ptr, ptr, ptr, ptr, ptr, ptr, ptr, ptr, ptr, ptr, ptr, ptr, ptr, ptr, ptr }
%struct.anon.7 = type { %struct._GLFWinitconfig, %struct._GLFWfbconfig, %struct._GLFWwndconfig, %struct._GLFWctxconfig, i32 }
%struct._GLFWinitconfig = type { i32, i32, i32, ptr, %struct.anon.8, %struct.anon.9, %struct.anon.10 }
%struct.anon.8 = type { i32, i32 }
%struct.anon.9 = type { i32 }
%struct.anon.10 = type { i32 }
%struct._GLFWfbconfig = type { i32, i32, i32, i32, i32, i32, i32, i32, i32, i32, i32, i32, i32, i32, i32, i32, i64 }
%struct._GLFWwndconfig = type { i32, i32, i32, i32, ptr, i32, i32, i32, i32, i32, i32, i32, i32, i32, i32, i32, i32, %struct.anon.11, %struct.anon.12, %struct.anon.13, %struct.anon.14 }
%struct.anon.11 = type { [256 x i8] }
%struct.anon.12 = type { [256 x i8], [256 x i8] }
%struct.anon.13 = type { i32, i32 }
%struct.anon.14 = type { [256 x i8] }
%struct._GLFWctxconfig = type { i32, i32, i32, i32, i32, i32, i32, i32, i32, i32, ptr, %struct.anon.15 }
%struct.anon.15 = type { i32 }
%struct._GLFWjoystick = type { i32, i32, ptr, i32, ptr, i32, ptr, i32, [128 x i8], ptr, [33 x i8], ptr, %struct._GLFWjoystickLinux }
%struct._GLFWjoystickLinux = type { i32, [4096 x i8], [512 x i32], [64 x i32], [64 x %struct.input_absinfo], [4 x [2 x i32]] }
%struct.input_absinfo = type { i32, i32, i32, i32, i32, i32 }
%struct._GLFWtls = type { %struct._GLFWtlsPOSIX }
%struct._GLFWtlsPOSIX = type { i32, i32 }
%struct._GLFWmutex = type { %struct._GLFWmutexPOSIX }
%struct._GLFWmutexPOSIX = type { i32, %union.pthread_mutex_t }
%union.pthread_mutex_t = type { %struct.__pthread_mutex_s }
%struct.__pthread_mutex_s = type { i32, i32, i32, i32, i32, i16, i16, %struct.__pthread_internal_list }
%struct.__pthread_internal_list = type { ptr, ptr }
%struct.anon.16 = type { i64, %struct._GLFWtimerPOSIX }
%struct._GLFWtimerPOSIX = type { i32, i64 }
%struct.anon.17 = type { i32, ptr, i32, i32, i32, i32, i32, i32, i32, i32, i32, i32, i32, i32, i32, i32, i32, i32, i32, i32, ptr, ptr, ptr, ptr, ptr, ptr, ptr, ptr, ptr, ptr, ptr, ptr, ptr, ptr, ptr, ptr, ptr, ptr, ptr }
%struct.anon.18 = type { ptr, ptr, ptr, ptr, ptr, ptr, ptr, ptr }
%struct.anon.19 = type { i32, ptr, [2 x ptr], ptr, i32, i32, i32, i32, i32, i32, i32 }
%struct.anon.20 = type { ptr, ptr }
%struct._GLFWlibraryWayland = type { ptr, ptr, ptr, ptr, ptr, ptr, ptr, ptr, ptr, ptr, ptr, ptr, ptr, ptr, ptr, ptr, ptr, ptr, ptr, i32, ptr, ptr, ptr, ptr, i32, ptr, ptr, ptr, ptr, ptr, i32, i32, i32, i32, i32, i32, i32, ptr, [256 x i16], [349 x i16], [349 x [5 x i8]], %struct.anon.21, ptr, ptr, %struct.anon.22, %struct.anon.23, %struct.anon.24, %struct.anon.25 }
%struct.anon.21 = type { ptr, ptr, ptr, ptr, ptr, i32, i32, i32, i32, i32, i32, i32, ptr, ptr, ptr, ptr, ptr, ptr, ptr, ptr, ptr, ptr, ptr, ptr, ptr, ptr, ptr, ptr, ptr, ptr, ptr, ptr }
%struct.anon.22 = type { ptr, ptr, ptr, ptr, ptr, ptr, ptr, ptr, ptr, ptr, ptr, ptr, ptr, ptr, ptr, ptr, ptr, ptr, ptr, ptr }
%struct.anon.23 = type { ptr, ptr, ptr, ptr, ptr }
%struct.anon.24 = type { ptr, ptr, ptr, ptr }
%struct.anon.25 = type { ptr, ptr, ptr, i32, ptr, ptr, ptr, ptr, ptr, ptr, ptr, ptr, ptr, ptr, ptr, ptr, ptr, ptr, ptr, ptr, ptr, ptr, ptr, ptr, ptr, ptr, ptr, ptr, ptr }
%struct._GLFWlibraryX11 = type { ptr, i32, i64, float, float, i64, i64, i32, ptr, ptr, i32, ptr, ptr, [349 x [5 x i8]], [256 x i16], [349 x i16], double, double, ptr, [2 x i32], i64, i64, i64, i64, i64, i64, i64, i64, i64, i64, i64, i64, i64, i64, i64, i64, i64, i64, i64, i64, i64, i64, i64, i64, i64, i64, i64, i64, i64, i64, i64, i64, i64, i64, i64, i64, i64, i64, i64, i64, i64, i64, i64, i64, i64, i64, i64, i64, i64, i64, %struct.anon.26, %struct.anon.27, %struct.anon.28, %struct.anon.29, %struct.anon.30, %struct.anon.31, %struct.anon.32, %struct.anon.33, %struct.anon.34, %struct.anon.35, %struct.anon.36, %struct.anon.37, %struct.anon.38 }
%struct.anon.26 = type { ptr, i32, ptr, ptr, ptr, ptr, ptr, ptr, ptr, ptr, ptr, ptr, ptr, ptr, ptr, ptr, ptr, ptr, ptr, ptr, ptr, ptr, ptr, ptr, ptr, ptr, ptr, ptr, ptr, ptr, ptr, ptr, ptr, ptr, ptr, ptr, ptr, ptr, ptr, ptr, ptr, ptr, ptr, ptr, ptr, ptr, ptr, ptr, ptr, ptr, ptr, ptr, ptr, ptr, ptr, ptr, ptr, ptr, ptr, ptr, ptr, ptr, ptr, ptr, ptr, ptr, ptr, ptr, ptr, ptr, ptr, ptr, ptr, ptr, ptr, ptr, ptr, ptr, ptr, ptr, ptr, ptr, ptr, ptr, ptr, ptr, ptr, ptr }
%struct.anon.27 = type { ptr, ptr, ptr, ptr }
%struct.anon.28 = type { i32, ptr, i32, i32, i32, i32, i32, i32, ptr, ptr, ptr, ptr, ptr, ptr, ptr, ptr, ptr, ptr, ptr, ptr, ptr, ptr, ptr, ptr, ptr }
%struct.anon.29 = type { i32, i32, i32, i32, i32, i32, i32, i32, ptr, ptr, ptr, ptr, ptr, ptr, ptr, ptr, ptr }
%struct.anon.30 = type { i32, i32, i32, i32, i32 }
%struct.anon.31 = type { i32, i64, i64 }
%struct.anon.32 = type { ptr, ptr, ptr, ptr, ptr, ptr, ptr }
%struct.anon.33 = type { i32, ptr, i32, i32, ptr, ptr, ptr }
%struct.anon.34 = type { ptr, ptr }
%struct.anon.35 = type { i32, ptr, i32, i32, ptr, ptr, ptr, ptr }
%struct.anon.36 = type { i32, ptr, i32, i32, i32, i32, i32, ptr, ptr }
%struct.anon.37 = type { i32, ptr, i32, i32, i32, i32, ptr, ptr, ptr }
%struct.anon.38 = type { i32, ptr, i32, i32, i32, i32, ptr, ptr, ptr, ptr }
%struct._GLFWlibraryNull = type { i32, i32, ptr, ptr, [121 x i16], [349 x i8] }
%struct._GLFWlibraryGLX = type { i32, i32, i32, i32, ptr, ptr, ptr, ptr, ptr, ptr, ptr, ptr, ptr, ptr, ptr, ptr, ptr, ptr, ptr, ptr, ptr, ptr, ptr, ptr, i32, i32, i32, i32, i32, i32, i32, i32, i32, i32, i32, i32 }
%struct._GLFWlibraryLinux = type { i32, i32, %struct.re_pattern_buffer, i32, i32 }
%struct.re_pattern_buffer = type { ptr, i64, i64, i64, ptr, ptr, i64, i8 }

@_glfw = external global %struct._GLFWlibrary, align 8
@.str.403 = private unnamed_addr constant [23 x i8] c"Invalid joystick ID %i\00", align 1

; Function Attrs: nounwind uwtable
define internal i32 @initJoysticks() #0 {
  %1 = alloca i32, align 4
  %2 = load i32, ptr getelementptr inbounds nuw (%struct._GLFWlibrary, ptr @_glfw, i32 0, i32 9), align 4, !tbaa !218
  %3 = icmp ne i32 %2, 0
  br i1 %3, label %11, label %4

4:                                                ; preds = %0
  %5 = load ptr, ptr getelementptr inbounds nuw (%struct._GLFWplatform, ptr getelementptr inbounds nuw (%struct._GLFWlibrary, ptr @_glfw, i32 0, i32 2), i32 0, i32 16), align 8, !tbaa !219
  %6 = call i32 %5()
  %7 = icmp ne i32 %6, 0
  br i1 %7, label %10, label %8

8:                                                ; preds = %4
  %9 = load ptr, ptr getelementptr inbounds nuw (%struct._GLFWplatform, ptr getelementptr inbounds nuw (%struct._GLFWlibrary, ptr @_glfw, i32 0, i32 2), i32 0, i32 17), align 8, !tbaa !220
  call void %9()
  store i32 0, ptr %1, align 4
  br label %12

10:                                               ; preds = %4
  br label %11

11:                                               ; preds = %10, %0
  store i32 1, ptr getelementptr inbounds nuw (%struct._GLFWlibrary, ptr @_glfw, i32 0, i32 9), align 4, !tbaa !218
  store i32 1, ptr %1, align 4
  br label %12

12:                                               ; preds = %11, %8
  %13 = load i32, ptr %1, align 4
  ret i32 %13
}

; Function Attrs: nounwind uwtable
define ptr @glfwGetJoystickHats(i32 noundef %0, ptr noundef %1) #0 {
  %3 = alloca ptr, align 8
  %4 = alloca i32, align 4
  %5 = alloca ptr, align 8
  %6 = alloca ptr, align 8
  %7 = alloca i32, align 4
  store i32 %0, ptr %4, align 4, !tbaa !8
  store ptr %1, ptr %5, align 8, !tbaa !221
  call void @llvm.lifetime.start.p0(i64 8, ptr %6) #8
  %8 = load ptr, ptr %5, align 8, !tbaa !221
  store i32 0, ptr %8, align 4, !tbaa !8
  %9 = load i32, ptr @_glfw, align 8, !tbaa !181
  %10 = icmp ne i32 %9, 0
  br i1 %10, label %12, label %11

11:                                               ; preds = %2
  call void (i32, ptr, ...) @_glfwInputError(i32 noundef 65537, ptr noundef null)
  store ptr null, ptr %3, align 8
  store i32 1, ptr %7, align 4
  br label %47

12:                                               ; preds = %2
  %13 = load i32, ptr %4, align 4, !tbaa !8
  %14 = icmp slt i32 %13, 0
  br i1 %14, label %18, label %15

15:                                               ; preds = %12
  %16 = load i32, ptr %4, align 4, !tbaa !8
  %17 = icmp sgt i32 %16, 15
  br i1 %17, label %18, label %20

18:                                               ; preds = %15, %12
  %19 = load i32, ptr %4, align 4, !tbaa !8
  call void (i32, ptr, ...) @_glfwInputError(i32 noundef 65539, ptr noundef @.str.403, i32 noundef %19)
  store ptr null, ptr %3, align 8
  store i32 1, ptr %7, align 4
  br label %47

20:                                               ; preds = %15
  %21 = call i32 @initJoysticks()
  %22 = icmp ne i32 %21, 0
  br i1 %22, label %24, label %23

23:                                               ; preds = %20
  store ptr null, ptr %3, align 8
  store i32 1, ptr %7, align 4
  br label %47

24:                                               ; preds = %20
  %25 = load i32, ptr %4, align 4, !tbaa !8
  %26 = sext i32 %25 to i64
  %27 = getelementptr inbounds %struct._GLFWjoystick, ptr getelementptr inbounds nuw (%struct._GLFWlibrary, ptr @_glfw, i32 0, i32 10), i64 %26
  store ptr %27, ptr %6, align 8, !tbaa !68
  %28 = load ptr, ptr %6, align 8, !tbaa !68
  %29 = getelementptr inbounds nuw %struct._GLFWjoystick, ptr %28, i32 0, i32 1
  %30 = load i32, ptr %29, align 4, !tbaa !70
  %31 = icmp ne i32 %30, 0
  br i1 %31, label %33, label %32

32:                                               ; preds = %24
  store ptr null, ptr %3, align 8
  store i32 1, ptr %7, align 4
  br label %47

33:                                               ; preds = %24
  %34 = load ptr, ptr getelementptr inbounds nuw (%struct._GLFWplatform, ptr getelementptr inbounds nuw (%struct._GLFWlibrary, ptr @_glfw, i32 0, i32 2), i32 0, i32 18), align 8, !tbaa !217
  %35 = load ptr, ptr %6, align 8, !tbaa !68
  %36 = call i32 %34(ptr noundef %35, i32 noundef 2)
  %37 = icmp ne i32 %36, 0
  br i1 %37, label %39, label %38

38:                                               ; preds = %33
  store ptr null, ptr %3, align 8
  store i32 1, ptr %7, align 4
  br label %47

39:                                               ; preds = %33
  %40 = load ptr, ptr %6, align 8, !tbaa !68
  %41 = getelementptr inbounds nuw %struct._GLFWjoystick, ptr %40, i32 0, i32 7
  %42 = load i32, ptr %41, align 8, !tbaa !175
  %43 = load ptr, ptr %5, align 8, !tbaa !221
  store i32 %42, ptr %43, align 4, !tbaa !8
  %44 = load ptr, ptr %6, align 8, !tbaa !68
  %45 = getelementptr inbounds nuw %struct._GLFWjoystick, ptr %44, i32 0, i32 6
  %46 = load ptr, ptr %45, align 8, !tbaa !155
  store ptr %46, ptr %3, align 8
  store i32 1, ptr %7, align 4
  br label %47

47:                                               ; preds = %39, %38, %32, %23, %18, %11
  call void @llvm.lifetime.end.p0(i64 8, ptr %6) #8
  %48 = load ptr, ptr %3, align 8
  ret ptr %48
}