; Function Attrs: nounwind uwtable
define ptr @glfwGetJoystickHats(i32 noundef %0, ptr noundef writeonly captures(none) initializes((0, 4)) %1) local_unnamed_addr #0 {
  store i32 0, ptr %1, align 4, !tbaa !169
  %3 = load i32, ptr @_glfw, align 8, !tbaa !170
  %.not = icmp eq i32 %3, 0
  br i1 %.not, label %4, label %5

4:                                                ; preds = %2
  tail call void (i32, ptr, ...) @_glfwInputError(i32 noundef 65537, ptr noundef null) #12
  br label %26

5:                                                ; preds = %2
  %or.cond = icmp ugt i32 %0, 15
  br i1 %or.cond, label %6, label %7

6:                                                ; preds = %5
  tail call void (i32, ptr, ...) @_glfwInputError(i32 noundef 65539, ptr noundef nonnull @.str.403, i32 noundef %0) #12
  br label %26

7:                                                ; preds = %5
  %8 = load i32, ptr getelementptr inbounds nuw (i8, ptr @_glfw, i64 1932), align 4, !tbaa !197
  %.not.i = icmp eq i32 %8, 0
  br i1 %.not.i, label %9, label %13

9:                                                ; preds = %7
  %10 = load ptr, ptr getelementptr inbounds nuw (i8, ptr @_glfw, i64 168), align 8, !tbaa !198
  %11 = tail call i32 %10() #12
  %.not1.i = icmp eq i32 %11, 0
  br i1 %.not1.i, label %initJoysticks.exit.thread, label %13

initJoysticks.exit.thread:                        ; preds = %9
  %12 = load ptr, ptr getelementptr inbounds nuw (i8, ptr @_glfw, i64 176), align 8, !tbaa !199
  tail call void %12() #12
  br label %26

13:                                               ; preds = %9, %7
  store i32 1, ptr getelementptr inbounds nuw (i8, ptr @_glfw, i64 1932), align 4, !tbaa !197
  %14 = zext nneg i32 %0 to i64
  %15 = getelementptr inbounds nuw %struct._GLFWjoystick, ptr getelementptr inbounds nuw (i8, ptr @_glfw, i64 1936), i64 %14
  %16 = getelementptr inbounds nuw i8, ptr %15, i64 4
  %17 = load i32, ptr %16, align 4, !tbaa !63
  %.not13 = icmp eq i32 %17, 0
  br i1 %.not13, label %26, label %18

18:                                               ; preds = %13
  %19 = load ptr, ptr getelementptr inbounds nuw (i8, ptr @_glfw, i64 184), align 8, !tbaa !200
  %20 = tail call i32 %19(ptr noundef nonnull %15, i32 noundef 2) #12
  %.not14 = icmp eq i32 %20, 0
  br i1 %.not14, label %26, label %21

21:                                               ; preds = %18
  %22 = getelementptr inbounds nuw i8, ptr %15, i64 48
  %23 = load i32, ptr %22, align 8, !tbaa !165
  store i32 %23, ptr %1, align 4, !tbaa !169
  %24 = getelementptr inbounds nuw i8, ptr %15, i64 40
  %25 = load ptr, ptr %24, align 8, !tbaa !148
  br label %26

26:                                               ; preds = %initJoysticks.exit.thread, %18, %13, %21, %6, %4
  %.0 = phi ptr [ null, %6 ], [ %25, %21 ], [ null, %4 ], [ null, %13 ], [ null, %18 ], [ null, %initJoysticks.exit.thread ]
  ret ptr %.0
}